target datalayout = "e-m:e-p270:32:32-p271:32:32-p272:64:64-i64:64-i128:128-f80:128-n8:16:32:64-S128"
target triple = "x86_64-pc-linux-gnu"

%struct._object = type { %union.anon.41, ptr }
%union.anon.41 = type { i64 }
%struct.__sigset_t = type { [16 x i64] }
%struct.sigaction = type { %union.anon.807, %struct.__sigset_t, i32, ptr }
%union.anon.807 = type { ptr }

@_Py_NoneStruct = external global %struct._object, align 8
@PyExc_OSError = external global ptr, align 8
@.str.13 = private unnamed_addr constant [13 x i8] c"siginterrupt\00", align 1
@PyExc_ValueError = external global ptr, align 8
@.str.25 = private unnamed_addr constant [27 x i8] c"signal number out of range\00", align 1

; Function Attrs: nounwind uwtable
define internal ptr @signal_siginterrupt_impl(ptr noundef %0, i32 noundef %1, i32 noundef %2) #0 {
  %4 = alloca ptr, align 8
  %5 = alloca ptr, align 8
  %6 = alloca i32, align 4
  %7 = alloca i32, align 4
  %8 = alloca %struct.sigaction, align 8
  %9 = alloca i32, align 4
  store ptr %0, ptr %5, align 8, !tbaa !179
  store i32 %1, ptr %6, align 4, !tbaa !4
  store i32 %2, ptr %7, align 4, !tbaa !4
  %10 = load i32, ptr %6, align 4, !tbaa !4
  %11 = icmp slt i32 %10, 1
  br i1 %11, label %15, label %12

12:                                               ; preds = %3
  %13 = load i32, ptr %6, align 4, !tbaa !4
  %14 = icmp sge i32 %13, 65
  br i1 %14, label %15, label %17

15:                                               ; preds = %12, %3
  %16 = load ptr, ptr @PyExc_ValueError, align 8, !tbaa !179
  call void @PyErr_SetString(ptr noundef %16, ptr noundef @.str.25)
  store ptr null, ptr %4, align 8
  br label %39

17:                                               ; preds = %12
  call void @llvm.lifetime.start.p0(i64 152, ptr %8) #10
  %18 = load i32, ptr %6, align 4, !tbaa !4
  %19 = call i32 @sigaction(i32 noundef %18, ptr noundef null, ptr noundef %8) #10
  %20 = load i32, ptr %7, align 4, !tbaa !4
  %21 = icmp ne i32 %20, 0
  br i1 %21, label %22, label %26

22:                                               ; preds = %17
  %23 = getelementptr inbounds nuw %struct.sigaction, ptr %8, i32 0, i32 2
  %24 = load i32, ptr %23, align 8, !tbaa !222
  %25 = and i32 %24, -268435457
  store i32 %25, ptr %23, align 8, !tbaa !222
  br label %30

26:                                               ; preds = %17
  %27 = getelementptr inbounds nuw %struct.sigaction, ptr %8, i32 0, i32 2
  %28 = load i32, ptr %27, align 8, !tbaa !222
  %29 = or i32 %28, 268435456
  store i32 %29, ptr %27, align 8, !tbaa !222
  br label %30

30:                                               ; preds = %26, %22
  %31 = load i32, ptr %6, align 4, !tbaa !4
  %32 = call i32 @sigaction(i32 noundef %31, ptr noundef %8, ptr noundef null) #10
  %33 = icmp slt i32 %32, 0
  br i1 %33, label %34, label %37

34:                                               ; preds = %30
  %35 = load ptr, ptr @PyExc_OSError, align 8, !tbaa !179
  %36 = call ptr @PyErr_SetFromErrno(ptr noundef %35)
  store ptr null, ptr %4, align 8
  store i32 1, ptr %9, align 4
  br label %38

37:                                               ; preds = %30
  store ptr @_Py_NoneStruct, ptr %4, align 8
  store i32 1, ptr %9, align 4
  br label %38

38:                                               ; preds = %37, %34
  call void @llvm.lifetime.end.p0(i64 152, ptr %8) #10
  br label %39

39:                                               ; preds = %38, %15
  %40 = load ptr, ptr %4, align 8
  ret ptr %40
}

; Function Attrs: nounwind uwtable
define internal ptr @signal_siginterrupt(ptr noundef %0, ptr noundef %1, i64 noundef %2) #0 {
  %4 = alloca ptr, align 8
  %5 = alloca ptr, align 8
  %6 = alloca i64, align 8
  %7 = alloca ptr, align 8
  %8 = alloca i32, align 4
  %9 = alloca i32, align 4
  store ptr %0, ptr %4, align 8, !tbaa !179
  store ptr %1, ptr %5, align 8, !tbaa !184
  store i64 %2, ptr %6, align 8, !tbaa !189
  call void @llvm.lifetime.start.p0(i64 8, ptr %7) #10
  store ptr null, ptr %7, align 8, !tbaa !179
  call void @llvm.lifetime.start.p0(i64 4, ptr %8) #10
  call void @llvm.lifetime.start.p0(i64 4, ptr %9) #10
  %10 = load i64, ptr %6, align 8, !tbaa !189
  %11 = icmp sle i64 2, %10
  br i1 %11, label %12, label %15

12:                                               ; preds = %3
  %13 = load i64, ptr %6, align 8, !tbaa !189
  %14 = icmp sle i64 %13, 2
  br i1 %14, label %20, label %15

15:                                               ; preds = %12, %3
  %16 = load i64, ptr %6, align 8, !tbaa !189
  %17 = call i32 @_PyArg_CheckPositional(ptr noundef @.str.13, i64 noundef %16, i64 noundef 2, i64 noundef 2)
  %18 = icmp ne i32 %17, 0
  br i1 %18, label %20, label %19

19:                                               ; preds = %15
  br label %47

20:                                               ; preds = %15, %12
  %21 = load ptr, ptr %5, align 8, !tbaa !184
  %22 = getelementptr ptr, ptr %21, i64 0
  %23 = load ptr, ptr %22, align 8, !tbaa !179
  %24 = call i32 @PyLong_AsInt(ptr noundef %23)
  store i32 %24, ptr %8, align 4, !tbaa !4
  %25 = load i32, ptr %8, align 4, !tbaa !4
  %26 = icmp eq i32 %25, -1
  br i1 %26, label %27, label %31

27:                                               ; preds = %20
  %28 = call ptr @PyErr_Occurred()
  %29 = icmp ne ptr %28, null
  br i1 %29, label %30, label %31

30:                                               ; preds = %27
  br label %47

31:                                               ; preds = %27, %20
  %32 = load ptr, ptr %5, align 8, !tbaa !184
  %33 = getelementptr ptr, ptr %32, i64 1
  %34 = load ptr, ptr %33, align 8, !tbaa !179
  %35 = call i32 @PyLong_AsInt(ptr noundef %34)
  store i32 %35, ptr %9, align 4, !tbaa !4
  %36 = load i32, ptr %9, align 4, !tbaa !4
  %37 = icmp eq i32 %36, -1
  br i1 %37, label %38, label %42

38:                                               ; preds = %31
  %39 = call ptr @PyErr_Occurred()
  %40 = icmp ne ptr %39, null
  br i1 %40, label %41, label %42

41:                                               ; preds = %38
  br label %47

42:                                               ; preds = %38, %31
  %43 = load ptr, ptr %4, align 8, !tbaa !179
  %44 = load i32, ptr %8, align 4, !tbaa !4
  %45 = load i32, ptr %9, align 4, !tbaa !4
  %46 = call ptr @signal_siginterrupt_impl(ptr noundef %43, i32 noundef %44, i32 noundef %45)
  store ptr %46, ptr %7, align 8, !tbaa !179
  br label %47

47:                                               ; preds = %42, %41, %30, %19
  %48 = load ptr, ptr %7, align 8, !tbaa !179
  call void @llvm.lifetime.end.p0(i64 4, ptr %9) #10
  call void @llvm.lifetime.end.p0(i64 4, ptr %8) #10
  call void @llvm.lifetime.end.p0(i64 8, ptr %7) #10
  ret ptr %48
}