; Function Attrs: nounwind uwtable
define internal noundef ptr @signal_siginterrupt(ptr readnone captures(none) %0, ptr noundef readonly captures(none) %1, i64 noundef %2) #2 {
  %4 = alloca %struct.sigaction, align 8
  %5 = alloca %struct.sigaction, align 8
  %or.cond = icmp eq i64 %2, 2
  br i1 %or.cond, label %8, label %6

6:                                                ; preds = %3
  %7 = tail call i32 @_PyArg_CheckPositional(ptr noundef nonnull @.str.13, i64 noundef %2, i64 noundef 2, i64 noundef 2) #15
  %.not = icmp eq i32 %7, 0
  br i1 %.not, label %signal_siginterrupt_impl.exit, label %8

8:                                                ; preds = %3, %6
  %9 = load ptr, ptr %1, align 8, !tbaa !176
  %10 = tail call i32 @PyLong_AsInt(ptr noundef %9) #15
  %11 = icmp eq i32 %10, -1
  br i1 %11, label %12, label %14

12:                                               ; preds = %8
  %13 = tail call ptr @PyErr_Occurred() #15
  %.not13 = icmp eq ptr %13, null
  br i1 %.not13, label %14, label %signal_siginterrupt_impl.exit

14:                                               ; preds = %12, %8
  %15 = getelementptr i8, ptr %1, i64 8
  %16 = load ptr, ptr %15, align 8, !tbaa !176
  %17 = tail call i32 @PyLong_AsInt(ptr noundef %16) #15
  %18 = icmp eq i32 %17, -1
  br i1 %18, label %33, label %.split

.split:                                           ; preds = %14
  %19 = add i32 %10, -65
  %or.cond.i = icmp ult i32 %19, -64
  br i1 %or.cond.i, label %20, label %22

20:                                               ; preds = %.split
  %21 = load ptr, ptr @PyExc_ValueError, align 8, !tbaa !176
  tail call void @PyErr_SetString(ptr noundef %21, ptr noundef nonnull @.str.25) #15
  br label %signal_siginterrupt_impl.exit

22:                                               ; preds = %.split
  call void @llvm.lifetime.start.p0(i64 152, ptr nonnull %5) #15
  %23 = call i32 @sigaction(i32 noundef %10, ptr noundef null, ptr noundef nonnull %5) #15
  %.not.i = icmp eq i32 %17, 0
  %24 = getelementptr inbounds nuw i8, ptr %5, i64 136
  %25 = load i32, ptr %24, align 8, !tbaa !211
  %26 = and i32 %25, -268435457
  %masksel.i = select i1 %.not.i, i32 268435456, i32 0
  %.sink.i = or disjoint i32 %26, %masksel.i
  store i32 %.sink.i, ptr %24, align 8, !tbaa !211
  %27 = call i32 @sigaction(i32 noundef %10, ptr noundef nonnull %5, ptr noundef null) #15
  %28 = icmp slt i32 %27, 0
  br i1 %28, label %29, label %32

29:                                               ; preds = %22
  %30 = load ptr, ptr @PyExc_OSError, align 8, !tbaa !176
  %31 = call ptr @PyErr_SetFromErrno(ptr noundef %30) #15
  br label %32

32:                                               ; preds = %29, %22
  %.1.i = phi ptr [ null, %29 ], [ @_Py_NoneStruct, %22 ]
  call void @llvm.lifetime.end.p0(i64 152, ptr nonnull %5) #15
  br label %signal_siginterrupt_impl.exit

33:                                               ; preds = %14
  %34 = tail call ptr @PyErr_Occurred() #15
  %.not14 = icmp eq ptr %34, null
  br i1 %.not14, label %.split11, label %signal_siginterrupt_impl.exit

.split11:                                         ; preds = %33
  %35 = add i32 %10, -65
  %or.cond.i15 = icmp ult i32 %35, -64
  br i1 %or.cond.i15, label %36, label %38

36:                                               ; preds = %.split11
  %37 = load ptr, ptr @PyExc_ValueError, align 8, !tbaa !176
  tail call void @PyErr_SetString(ptr noundef %37, ptr noundef nonnull @.str.25) #15
  br label %signal_siginterrupt_impl.exit

38:                                               ; preds = %.split11
  call void @llvm.lifetime.start.p0(i64 152, ptr nonnull %4) #15
  %39 = call i32 @sigaction(i32 noundef %10, ptr noundef null, ptr noundef nonnull %4) #15
  %40 = getelementptr inbounds nuw i8, ptr %4, i64 136
  %41 = load i32, ptr %40, align 8, !tbaa !211
  %42 = and i32 %41, -268435457
  store i32 %42, ptr %40, align 8, !tbaa !211
  %43 = call i32 @sigaction(i32 noundef %10, ptr noundef nonnull %4, ptr noundef null) #15
  %44 = icmp slt i32 %43, 0
  br i1 %44, label %45, label %48

45:                                               ; preds = %38
  %46 = load ptr, ptr @PyExc_OSError, align 8, !tbaa !176
  %47 = call ptr @PyErr_SetFromErrno(ptr noundef %46) #15
  br label %48

48:                                               ; preds = %45, %38
  %.1.i17 = phi ptr [ null, %45 ], [ @_Py_NoneStruct, %38 ]
  call void @llvm.lifetime.end.p0(i64 152, ptr nonnull %4) #15
  br label %signal_siginterrupt_impl.exit

signal_siginterrupt_impl.exit:                    ; preds = %48, %36, %32, %20, %33, %12, %6
  %.0 = phi ptr [ null, %12 ], [ null, %33 ], [ null, %6 ], [ null, %20 ], [ %.1.i, %32 ], [ null, %36 ], [ %.1.i17, %48 ]
  ret ptr %.0
}